target datalayout = "e-m:e-p270:32:32-p271:32:32-p272:64:64-i64:64-i128:128-f80:128-n8:16:32:64-S128"
target triple = "x86_64-pc-linux-gnu"

%"class.pxrInternal_v0_24__pxrReserved__::Vt_ArrayBase" = type { %"struct.pxrInternal_v0_24__pxrReserved__::Vt_ShapeData", ptr }
%"struct.pxrInternal_v0_24__pxrReserved__::Vt_ShapeData" = type { i64, [3 x i32] }
%"class.pxrInternal_v0_24__pxrReserved__::VtArray.97" = type { %"class.pxrInternal_v0_24__pxrReserved__::Vt_ArrayBase", ptr }
%"class.pxrInternal_v0_24__pxrReserved__::GfVec4f" = type { [4 x float] }

@.str.74 = private unnamed_addr constant [7 x i8] c"float4\00", align 1

; Function Attrs: mustprogress nounwind uwtable
define linkonce_odr dso_local void @_ZN32pxrInternal_v0_24__pxrReserved__7GfVec4fC2Effff(ptr noundef nonnull align 4 dereferenceable(16) %0, float noundef %1, float noundef %2, float noundef %3, float noundef %4) unnamed_addr #5 comdat align 2 {
  %6 = alloca ptr, align 8
  %7 = alloca float, align 4
  %8 = alloca float, align 4
  %9 = alloca float, align 4
  %10 = alloca float, align 4
  store ptr %0, ptr %6, align 8
  store float %1, ptr %7, align 4
  store float %2, ptr %8, align 4
  store float %3, ptr %9, align 4
  store float %4, ptr %10, align 4
  %11 = load ptr, ptr %6, align 8
  %12 = getelementptr inbounds nuw %"class.pxrInternal_v0_24__pxrReserved__::GfVec4f", ptr %11, i32 0, i32 0
  %13 = load float, ptr %7, align 4
  store float %13, ptr %12, align 4
  %14 = getelementptr inbounds float, ptr %12, i64 1
  %15 = load float, ptr %8, align 4
  store float %15, ptr %14, align 4
  %16 = getelementptr inbounds float, ptr %12, i64 2
  %17 = load float, ptr %9, align 4
  store float %17, ptr %16, align 4
  %18 = getelementptr inbounds float, ptr %12, i64 3
  %19 = load float, ptr %10, align 4
  store float %19, ptr %18, align 4
  ret void
}

; Function Attrs: mustprogress uwtable
define dso_local void @_Z7GetInfoIN32pxrInternal_v0_24__pxrReserved__7GfVec4fEEvPNS0_7VtArrayIT_EEPNSt7__cxx1112basic_stringIcSt11char_traitsIcESaIcEEE(ptr noundef %0, ptr noundef %1) #4 personality ptr @__gxx_personality_v0 {
  %3 = alloca ptr, align 8
  %4 = alloca ptr, align 8
  %5 = alloca %"class.pxrInternal_v0_24__pxrReserved__::VtArray.97", align 8
  %6 = alloca ptr, align 8
  %7 = alloca i32, align 4
  %8 = alloca %"class.pxrInternal_v0_24__pxrReserved__::GfVec4f", align 4
  %9 = alloca %"class.pxrInternal_v0_24__pxrReserved__::GfVec4f", align 4
  %10 = alloca %"class.pxrInternal_v0_24__pxrReserved__::GfVec4f", align 4
  store ptr %0, ptr %3, align 8
  store ptr %1, ptr %4, align 8
  %11 = load ptr, ptr %4, align 8
  %12 = call noundef nonnull align 8 dereferenceable(32) ptr @_ZNSt7__cxx1112basic_stringIcSt11char_traitsIcESaIcEEaSEPKc(ptr noundef nonnull align 8 dereferenceable(32) %11, ptr noundef @.str.74)
  call void @_ZN32pxrInternal_v0_24__pxrReserved__7VtArrayINS_7GfVec4fEEC1Em(ptr noundef nonnull align 8 dereferenceable(40) %5, i64 noundef 3)
  %13 = load ptr, ptr %3, align 8
  %14 = invoke noundef nonnull align 8 dereferenceable(40) ptr @_ZN32pxrInternal_v0_24__pxrReserved__7VtArrayINS_7GfVec4fEEaSEOS2_(ptr noundef nonnull align 8 dereferenceable(40) %13, ptr noundef nonnull align 8 dereferenceable(40) %5)
          to label %15 unwind label %22

15:                                               ; preds = %2
  call void @_ZN32pxrInternal_v0_24__pxrReserved__7VtArrayINS_7GfVec4fEED1Ev(ptr noundef nonnull align 8 dereferenceable(40) %5) #3
  call void @_ZN32pxrInternal_v0_24__pxrReserved__7GfVec4fC2Effff(ptr noundef nonnull align 4 dereferenceable(16) %8, float noundef 0x3FF4CCCCC0000000, float noundef 0x4002666660000000, float noundef 0x400A666660000000, float noundef 0x4011333340000000)
  %16 = load ptr, ptr %3, align 8
  %17 = call noundef nonnull align 4 dereferenceable(16) ptr @_ZN32pxrInternal_v0_24__pxrReserved__7VtArrayINS_7GfVec4fEEixEm(ptr noundef nonnull align 8 dereferenceable(40) %16, i64 noundef 0)
  call void @llvm.memcpy.p0.p0.i64(ptr align 4 %17, ptr align 4 %8, i64 16, i1 false)
  call void @_ZN32pxrInternal_v0_24__pxrReserved__7GfVec4fC2Effff(ptr noundef nonnull align 4 dereferenceable(16) %9, float noundef 0x4015333340000000, float noundef 0x4019333340000000, float noundef 0x401D333340000000, float noundef 0x40209999A0000000)
  %18 = load ptr, ptr %3, align 8
  %19 = call noundef nonnull align 4 dereferenceable(16) ptr @_ZN32pxrInternal_v0_24__pxrReserved__7VtArrayINS_7GfVec4fEEixEm(ptr noundef nonnull align 8 dereferenceable(40) %18, i64 noundef 1)
  call void @llvm.memcpy.p0.p0.i64(ptr align 4 %19, ptr align 4 %9, i64 16, i1 false)
  call void @_ZN32pxrInternal_v0_24__pxrReserved__7GfVec4fC2Effff(ptr noundef nonnull align 4 dereferenceable(16) %10, float noundef 0x40229999A0000000, float noundef 0x40249999A0000000, float noundef 0x40269999A0000000, float noundef 0x40289999A0000000)
  %20 = load ptr, ptr %3, align 8
  %21 = call noundef nonnull align 4 dereferenceable(16) ptr @_ZN32pxrInternal_v0_24__pxrReserved__7VtArrayINS_7GfVec4fEEixEm(ptr noundef nonnull align 8 dereferenceable(40) %20, i64 noundef 2)
  call void @llvm.memcpy.p0.p0.i64(ptr align 4 %21, ptr align 4 %10, i64 16, i1 false)
  ret void

22:                                               ; preds = %2
  %23 = landingpad { ptr, i32 }
          cleanup
  %24 = extractvalue { ptr, i32 } %23, 0
  store ptr %24, ptr %6, align 8
  %25 = extractvalue { ptr, i32 } %23, 1
  store i32 %25, ptr %7, align 4
  call void @_ZN32pxrInternal_v0_24__pxrReserved__7VtArrayINS_7GfVec4fEED1Ev(ptr noundef nonnull align 8 dereferenceable(40) %5) #3
  br label %26

26:                                               ; preds = %22
  %27 = load ptr, ptr %6, align 8
  %28 = load i32, ptr %7, align 4
  %29 = insertvalue { ptr, i32 } poison, ptr %27, 0
  %30 = insertvalue { ptr, i32 } %29, i32 %28, 1
  resume { ptr, i32 } %30
}