; Function Attrs: mustprogress uwtable
define dso_local void @_Z7GetInfoIN32pxrInternal_v0_24__pxrReserved__7GfVec4fEEvPNS0_7VtArrayIT_EEPNSt7__cxx1112basic_stringIcSt11char_traitsIcESaIcEEE(ptr noundef %0, ptr noundef nonnull %1) local_unnamed_addr #3 personality ptr @__gxx_personality_v0 {
  %3 = alloca %"class.pxrInternal_v0_24__pxrReserved__::VtArray.97", align 8
  %4 = tail call noundef nonnull align 8 dereferenceable(32) ptr @_ZNSt7__cxx1112basic_stringIcSt11char_traitsIcESaIcEEaSEPKc(ptr noundef nonnull align 8 dereferenceable(32) %1, ptr noundef nonnull @.str.74)
  call void @_ZN32pxrInternal_v0_24__pxrReserved__7VtArrayINS_7GfVec4fEEC1Em(ptr noundef nonnull align 8 dereferenceable(40) %3, i64 noundef 3)
  %5 = invoke noundef nonnull align 8 dereferenceable(40) ptr @_ZN32pxrInternal_v0_24__pxrReserved__7VtArrayINS_7GfVec4fEEaSEOS2_(ptr noundef nonnull align 8 dereferenceable(40) %0, ptr noundef nonnull align 8 dereferenceable(40) %3)
          to label %6 unwind label %10

6:                                                ; preds = %2
  call void @_ZN32pxrInternal_v0_24__pxrReserved__7VtArrayINS_7GfVec4fEED1Ev(ptr noundef nonnull align 8 dereferenceable(40) %3) #25
  %7 = call noundef nonnull align 4 dereferenceable(16) ptr @_ZN32pxrInternal_v0_24__pxrReserved__7VtArrayINS_7GfVec4fEEixEm(ptr noundef nonnull align 8 dereferenceable(40) %0, i64 noundef 0)
  store float 0x3FF4CCCCC0000000, ptr %7, align 4
  %.sroa.211.0..sroa_idx = getelementptr inbounds i8, ptr %7, i64 4
  store float 0x4002666660000000, ptr %.sroa.211.0..sroa_idx, align 4
  %.sroa.312.0..sroa_idx = getelementptr inbounds i8, ptr %7, i64 8
  store float 0x400A666660000000, ptr %.sroa.312.0..sroa_idx, align 4
  %.sroa.413.0..sroa_idx = getelementptr inbounds i8, ptr %7, i64 12
  store float 0x4011333340000000, ptr %.sroa.413.0..sroa_idx, align 4
  %8 = call noundef nonnull align 4 dereferenceable(16) ptr @_ZN32pxrInternal_v0_24__pxrReserved__7VtArrayINS_7GfVec4fEEixEm(ptr noundef nonnull align 8 dereferenceable(40) %0, i64 noundef 1)
  store float 0x4015333340000000, ptr %8, align 4
  %.sroa.27.0..sroa_idx = getelementptr inbounds i8, ptr %8, i64 4
  store float 0x4019333340000000, ptr %.sroa.27.0..sroa_idx, align 4
  %.sroa.38.0..sroa_idx = getelementptr inbounds i8, ptr %8, i64 8
  store float 0x401D333340000000, ptr %.sroa.38.0..sroa_idx, align 4
  %.sroa.49.0..sroa_idx = getelementptr inbounds i8, ptr %8, i64 12
  store float 0x40209999A0000000, ptr %.sroa.49.0..sroa_idx, align 4
  %9 = call noundef nonnull align 4 dereferenceable(16) ptr @_ZN32pxrInternal_v0_24__pxrReserved__7VtArrayINS_7GfVec4fEEixEm(ptr noundef nonnull align 8 dereferenceable(40) %0, i64 noundef 2)
  store float 0x40229999A0000000, ptr %9, align 4
  %.sroa.2.0..sroa_idx = getelementptr inbounds i8, ptr %9, i64 4
  store float 0x40249999A0000000, ptr %.sroa.2.0..sroa_idx, align 4
  %.sroa.3.0..sroa_idx = getelementptr inbounds i8, ptr %9, i64 8
  store float 0x40269999A0000000, ptr %.sroa.3.0..sroa_idx, align 4
  %.sroa.4.0..sroa_idx = getelementptr inbounds i8, ptr %9, i64 12
  store float 0x40289999A0000000, ptr %.sroa.4.0..sroa_idx, align 4
  ret void

10:                                               ; preds = %2
  %11 = landingpad { ptr, i32 }
          cleanup
  call void @_ZN32pxrInternal_v0_24__pxrReserved__7VtArrayINS_7GfVec4fEED1Ev(ptr noundef nonnull align 8 dereferenceable(40) %3) #25
  resume { ptr, i32 } %11
}